; Function Attrs: mustprogress nounwind uwtable
define void @_ZN3spv7Builder11postProcessEb(ptr noundef nonnull align 8 dereferenceable(1416) %0, i1 noundef zeroext %1) local_unnamed_addr #3 align 2 {
  br i1 %1, label %4, label %3

3:                                                ; preds = %2
  tail call void @_ZN3spv7Builder14postProcessCFGEv(ptr noundef nonnull align 8 dereferenceable(1416) %0)
  br label %4

4:                                                ; preds = %3, %2
  tail call void @_ZN3spv7Builder19postProcessFeaturesEv(ptr noundef nonnull align 8 dereferenceable(1416) %0)
  tail call void @_ZN3spv7Builder19postProcessSamplersEv(ptr noundef nonnull align 8 dereferenceable(1416) %0)
  ret void
}